; Function Attrs: mustprogress nofree norecurse nosync nounwind willreturn memory(argmem: readwrite) uwtable
define void @_ZN7rocksdb13IOTraceWriterC2EPNS_11SystemClockERKNS_12TraceOptionsEOSt10unique_ptrINS_11TraceWriterESt14default_deleteIS7_EE(ptr noundef nonnull writeonly align 8 captures(none) dereferenceable(48) initializes((0, 48)) %0, ptr noundef %1, ptr noundef nonnull readonly align 8 captures(none) dereferenceable(25) %2, ptr noundef nonnull align 8 captures(none) dereferenceable(8) %3) unnamed_addr #4 align 2 {
  store ptr %1, ptr %0, align 8, !tbaa !18
  %5 = getelementptr inbounds nuw i8, ptr %0, i64 8
  tail call void @llvm.memcpy.p0.p0.i64(ptr noundef nonnull align 8 dereferenceable(32) %5, ptr noundef nonnull align 8 dereferenceable(32) %2, i64 32, i1 false), !tbaa.struct !30
  %6 = getelementptr inbounds nuw i8, ptr %0, i64 40
  %7 = load i64, ptr %3, align 8, !tbaa !33
  store i64 %7, ptr %6, align 8, !tbaa !33
  store ptr null, ptr %3, align 8, !tbaa !33
  ret void
}